; ModuleID = 'source-C-CXX/26/1991.c'
source_filename = "source-C-CXX/26/1991.c"
target datalayout = "e-m:e-p270:32:32-p271:32:32-p272:64:64-i64:64-f80:128-n8:16:32:64-S128"
target triple = "x86_64-pc-linux-gnu"

@.str = private unnamed_addr constant [3 x i8] c"%d\00", align 1
@.str.1 = private unnamed_addr constant [12 x i8] c"%lf %lf %lf\00", align 1
@.str.2 = private unnamed_addr constant [32 x i8] c"x1=%.5lf+%.5lfi;x2=%.5lf%.5lfi\0A\00", align 1
@.str.3 = private unnamed_addr constant [19 x i8] c"x1=%.5lf;x2=%.5lf\0A\00", align 1
@.str.4 = private unnamed_addr constant [13 x i8] c"x1=x2=%.5lf\0A\00", align 1

; Function Attrs: nofree nounwind sspstrong uwtable
define dso_local i32 @main() local_unnamed_addr #0 {
  %1 = alloca double, align 8
  %2 = alloca double, align 8
  %3 = alloca double, align 8
  %4 = alloca i32, align 4
  %5 = bitcast double* %1 to i8*
  call void @llvm.lifetime.start.p0i8(i64 8, i8* nonnull %5) #4
  %6 = bitcast double* %2 to i8*
  call void @llvm.lifetime.start.p0i8(i64 8, i8* nonnull %6) #4
  %7 = bitcast double* %3 to i8*
  call void @llvm.lifetime.start.p0i8(i64 8, i8* nonnull %7) #4
  %8 = bitcast i32* %4 to i8*
  call void @llvm.lifetime.start.p0i8(i64 4, i8* nonnull %8) #4
  %9 = call i32 (i8*, ...) @__isoc99_scanf(i8* getelementptr inbounds ([3 x i8], [3 x i8]* @.str, i64 0, i64 0), i32* nonnull %4)
  %10 = load i32, i32* %4, align 4, !tbaa !5
  %11 = add nsw i32 %10, -1
  store i32 %11, i32* %4, align 4, !tbaa !5
  %12 = icmp eq i32 %10, 0
  br i1 %12, label %60, label %13

13:                                               ; preds = %0, %56
  %14 = call i32 (i8*, ...) @__isoc99_scanf(i8* getelementptr inbounds ([12 x i8], [12 x i8]* @.str.1, i64 0, i64 0), double* nonnull %1, double* nonnull %2, double* nonnull %3)
  %15 = load double, double* %2, align 8, !tbaa !9
  %16 = fmul double %15, %15
  %17 = load double, double* %1, align 8, !tbaa !9
  %18 = fmul double %17, 4.000000e+00
  %19 = load double, double* %3, align 8, !tbaa !9
  %20 = fmul double %18, %19
  %21 = fsub double %16, %20
  %22 = fcmp olt double %21, 0.000000e+00
  br i1 %22, label %23, label %34

23:                                               ; preds = %13
  %24 = fneg double %21
  %25 = call double @sqrt(double %24) #4
  %26 = fmul double %25, 5.000000e-01
  %27 = load double, double* %1, align 8, !tbaa !9
  %28 = fdiv double %26, %27
  %29 = load double, double* %2, align 8, !tbaa !9
  %30 = fmul double %29, -5.000000e-01
  %31 = fdiv double %30, %27
  %32 = fneg double %28
  %33 = call i32 (i8*, ...) @printf(i8* nonnull dereferenceable(1) getelementptr inbounds ([32 x i8], [32 x i8]* @.str.2, i64 0, i64 0), double %31, double %28, double %31, double %32)
  br label %56

34:                                               ; preds = %13
  %35 = fcmp ogt double %21, 0.000000e+00
  br i1 %35, label %36, label %51

36:                                               ; preds = %34
  %37 = call double @sqrt(double %21) #4
  %38 = load double, double* %1, align 8, !tbaa !9
  %39 = load double, double* %2, align 8, !tbaa !9
  %40 = insertelement <2 x double> poison, double %37, i32 0
  %41 = insertelement <2 x double> %40, double %39, i32 1
  %42 = fmul <2 x double> %41, <double 5.000000e-01, double -5.000000e-01>
  %43 = insertelement <2 x double> poison, double %38, i32 0
  %44 = shufflevector <2 x double> %43, <2 x double> poison, <2 x i32> zeroinitializer
  %45 = fdiv <2 x double> %42, %44
  %46 = extractelement <2 x double> %45, i32 0
  %47 = extractelement <2 x double> %45, i32 1
  %48 = fadd double %46, %47
  %49 = fsub double %47, %46
  %50 = call i32 (i8*, ...) @printf(i8* nonnull dereferenceable(1) getelementptr inbounds ([19 x i8], [19 x i8]* @.str.3, i64 0, i64 0), double %48, double %49)
  br label %56

51:                                               ; preds = %34
  %52 = fneg double %15
  %53 = fdiv double %52, %17
  %54 = fmul double %53, 5.000000e-01
  %55 = call i32 (i8*, ...) @printf(i8* nonnull dereferenceable(1) getelementptr inbounds ([13 x i8], [13 x i8]* @.str.4, i64 0, i64 0), double %54)
  br label %56

56:                                               ; preds = %36, %51, %23
  %57 = load i32, i32* %4, align 4, !tbaa !5
  %58 = add nsw i32 %57, -1
  store i32 %58, i32* %4, align 4, !tbaa !5
  %59 = icmp eq i32 %57, 0
  br i1 %59, label %60, label %13, !llvm.loop !11

60:                                               ; preds = %56, %0
  call void @llvm.lifetime.end.p0i8(i64 4, i8* nonnull %8) #4
  call void @llvm.lifetime.end.p0i8(i64 8, i8* nonnull %7) #4
  call void @llvm.lifetime.end.p0i8(i64 8, i8* nonnull %6) #4
  call void @llvm.lifetime.end.p0i8(i64 8, i8* nonnull %5) #4
  ret i32 0
}

; Function Attrs: argmemonly mustprogress nofree nosync nounwind willreturn
declare void @llvm.lifetime.start.p0i8(i64 immarg, i8* nocapture) #1

; Function Attrs: nofree nounwind
declare noundef i32 @__isoc99_scanf(i8* nocapture noundef readonly, ...) local_unnamed_addr #2

; Function Attrs: mustprogress nofree nounwind willreturn
declare double @sqrt(double) local_unnamed_addr #3

; Function Attrs: nofree nounwind
declare noundef i32 @printf(i8* nocapture noundef readonly, ...) local_unnamed_addr #2

; Function Attrs: argmemonly mustprogress nofree nosync nounwind willreturn
declare void @llvm.lifetime.end.p0i8(i64 immarg, i8* nocapture) #1


!llvm.module.flags = !{!0, !1, !2, !3}
!llvm.ident = !{!4}

!0 = !{i32 1, !"wchar_size", i32 4}
!1 = !{i32 7, !"PIC Level", i32 2}
!2 = !{i32 7, !"PIE Level", i32 2}
!3 = !{i32 7, !"uwtable", i32 1}
!4 = !{!"clang version 13.0.0"}
!5 = !{!6, !6, i64 0}
!6 = !{!"int", !7, i64 0}
!7 = !{!"omnipotent char", !8, i64 0}
!8 = !{!"Simple C/C++ TBAA"}
!9 = !{!10, !10, i64 0}
!10 = !{!"double", !7, i64 0}
!11 = distinct !{!11, !12}
!12 = !{!"llvm.loop.mustprogress"}
